; Function Attrs: mustprogress nofree norecurse nosync nounwind ssp willreturn memory(argmem: readwrite) uwtable
define internal void @_ZN6open3d4core6kernelL26CPULogicalXorElementKernelIjjEEvPKvS4_Pv(ptr noundef readonly captures(none) %0, ptr noundef readonly captures(none) %1, ptr noundef writeonly captures(none) initializes((0, 4)) %2) #15 {
  %4 = load i32, ptr %0, align 4, !tbaa !40
  %5 = icmp ne i32 %4, 0
  %6 = load i32, ptr %1, align 4, !tbaa !40
  %7 = icmp ne i32 %6, 0
  %8 = xor i1 %5, %7
  %9 = zext i1 %8 to i32
  store i32 %9, ptr %2, align 4, !tbaa !40
  ret void
}